target datalayout = "e-m:e-p270:32:32-p271:32:32-p272:64:64-i64:64-i128:128-f80:128-n8:16:32:64-S128"
target triple = "x86_64-pc-linux-gnu"

%struct.AVFormatContext = type { ptr, ptr, ptr, ptr, ptr, i32, i32, ptr, i32, ptr, i32, ptr, ptr, i64, i64, i64, i32, i32, i32, i64, i64, ptr, i32, i32, ptr, i32, i32, i32, i32, ptr, i64, i32, i32, %struct.AVIOInterruptCB, i32, i32, i32, i32, i64, i32, i32, i32, i32, i32, i32, i32, i32, i32, i32, i32, i32, i64, i32, i32, i32, i32, i32, ptr, ptr, ptr, ptr, i32, ptr, ptr, ptr, ptr, i32, ptr, ptr, i64, ptr, ptr, ptr, i64 }
%struct.AVIOInterruptCB = type { ptr, ptr }
%struct.AVIOContext = type { ptr, ptr, i32, ptr, ptr, ptr, ptr, ptr, ptr, i64, i32, i32, i32, i32, i32, i64, ptr, ptr, ptr, ptr, i32, i32, ptr, ptr, ptr, i32, ptr, i64, i64 }

@.str.3 = private unnamed_addr constant [25 x i8] c"INFO subchunk truncated\0A\00", align 1
@.str.4 = private unnamed_addr constant [23 x i8] c"too big INFO subchunk\0A\00", align 1
@.str.5 = private unnamed_addr constant [16 x i8] c"truncated file\0A\00", align 1
@.str.6 = private unnamed_addr constant [40 x i8] c"out of memory, unable to read INFO tag\0A\00", align 1
@.str.7 = private unnamed_addr constant [46 x i8] c"premature end of file while reading INFO tag\0A\00", align 1

; Function Attrs: alwaysinline nounwind uwtable
define internal i64 @avio_tell(ptr noundef %0) #4 {
  %2 = alloca ptr, align 8
  store ptr %0, ptr %2, align 8, !tbaa !4
  %3 = load ptr, ptr %2, align 8, !tbaa !4
  %4 = call i64 @avio_seek(ptr noundef %3, i64 noundef 0, i32 noundef 1)
  ret i64 %4
}

; Function Attrs: nounwind uwtable
define i32 @ff_read_riff_info(ptr noundef %0, i64 noundef %1) #0 {
  %3 = alloca i32, align 4
  %4 = alloca ptr, align 8
  %5 = alloca i64, align 8
  %6 = alloca i64, align 8
  %7 = alloca i64, align 8
  %8 = alloca i64, align 8
  %9 = alloca ptr, align 8
  %10 = alloca i32, align 4
  %11 = alloca i64, align 8
  %12 = alloca [5 x i8], align 1
  %13 = alloca ptr, align 8
  %14 = alloca i32, align 4
  store ptr %0, ptr %4, align 8, !tbaa !20
  store i64 %1, ptr %5, align 8, !tbaa !24
  call void @llvm.lifetime.start.p0(i64 8, ptr %6) #6
  call void @llvm.lifetime.start.p0(i64 8, ptr %7) #6
  call void @llvm.lifetime.start.p0(i64 8, ptr %8) #6
  call void @llvm.lifetime.start.p0(i64 8, ptr %9) #6
  %15 = load ptr, ptr %4, align 8, !tbaa !20
  %16 = getelementptr inbounds nuw %struct.AVFormatContext, ptr %15, i32 0, i32 4
  %17 = load ptr, ptr %16, align 8, !tbaa !54
  store ptr %17, ptr %9, align 8, !tbaa !4
  %18 = load ptr, ptr %9, align 8, !tbaa !4
  %19 = call i64 @avio_tell(ptr noundef %18)
  store i64 %19, ptr %6, align 8, !tbaa !24
  %20 = load i64, ptr %6, align 8, !tbaa !24
  %21 = load i64, ptr %5, align 8, !tbaa !24
  %22 = add nsw i64 %20, %21
  store i64 %22, ptr %7, align 8, !tbaa !24
  br label %23

23:                                               ; preds = %141, %139, %2
  %24 = load ptr, ptr %9, align 8, !tbaa !4
  %25 = call i64 @avio_tell(ptr noundef %24)
  store i64 %25, ptr %8, align 8, !tbaa !24
  %26 = icmp sge i64 %25, 0
  br i1 %26, label %27, label %32

27:                                               ; preds = %23
  %28 = load i64, ptr %8, align 8, !tbaa !24
  %29 = load i64, ptr %7, align 8, !tbaa !24
  %30 = sub nsw i64 %29, 8
  %31 = icmp sle i64 %28, %30
  br label %32

32:                                               ; preds = %27, %23
  %33 = phi i1 [ false, %23 ], [ %31, %27 ]
  br i1 %33, label %34, label %142

34:                                               ; preds = %32
  call void @llvm.lifetime.start.p0(i64 4, ptr %10) #6
  call void @llvm.lifetime.start.p0(i64 8, ptr %11) #6
  call void @llvm.lifetime.start.p0(i64 5, ptr %12) #6
  call void @llvm.memset.p0.i64(ptr align 1 %12, i8 0, i64 5, i1 false)
  call void @llvm.lifetime.start.p0(i64 8, ptr %13) #6
  %35 = load ptr, ptr %9, align 8, !tbaa !4
  %36 = call i32 @avio_rl32(ptr noundef %35)
  store i32 %36, ptr %10, align 4, !tbaa !11
  %37 = load ptr, ptr %9, align 8, !tbaa !4
  %38 = call i32 @avio_rl32(ptr noundef %37)
  %39 = zext i32 %38 to i64
  store i64 %39, ptr %11, align 8, !tbaa !24
  %40 = load ptr, ptr %9, align 8, !tbaa !4
  %41 = call i32 @avio_feof(ptr noundef %40)
  %42 = icmp ne i32 %41, 0
  br i1 %42, label %43, label %52

43:                                               ; preds = %34
  %44 = load i32, ptr %10, align 4, !tbaa !11
  %45 = icmp ne i32 %44, 0
  br i1 %45, label %49, label %46

46:                                               ; preds = %43
  %47 = load i64, ptr %11, align 8, !tbaa !24
  %48 = icmp ne i64 %47, 0
  br i1 %48, label %49, label %51

49:                                               ; preds = %46, %43
  %50 = load ptr, ptr %4, align 8, !tbaa !20
  call void (ptr, i32, ptr, ...) @av_log(ptr noundef %50, i32 noundef 24, ptr noundef @.str.3)
  store i32 -1094995529, ptr %3, align 4
  store i32 1, ptr %14, align 4
  br label %139

51:                                               ; preds = %46
  store i32 -541478725, ptr %3, align 4
  store i32 1, ptr %14, align 4
  br label %139

52:                                               ; preds = %34
  %53 = load i64, ptr %11, align 8, !tbaa !24
  %54 = load i64, ptr %7, align 8, !tbaa !24
  %55 = icmp sgt i64 %53, %54
  br i1 %55, label %65, label %56

56:                                               ; preds = %52
  %57 = load i64, ptr %7, align 8, !tbaa !24
  %58 = load i64, ptr %11, align 8, !tbaa !24
  %59 = sub nsw i64 %57, %58
  %60 = load i64, ptr %8, align 8, !tbaa !24
  %61 = icmp slt i64 %59, %60
  br i1 %61, label %65, label %62

62:                                               ; preds = %56
  %63 = load i64, ptr %11, align 8, !tbaa !24
  %64 = icmp eq i64 %63, 4294967295
  br i1 %64, label %65, label %88

65:                                               ; preds = %62, %56, %52
  %66 = load ptr, ptr %9, align 8, !tbaa !4
  %67 = call i64 @avio_seek(ptr noundef %66, i64 noundef -9, i32 noundef 1)
  %68 = load ptr, ptr %9, align 8, !tbaa !4
  %69 = call i32 @avio_rl32(ptr noundef %68)
  store i32 %69, ptr %10, align 4, !tbaa !11
  %70 = load ptr, ptr %9, align 8, !tbaa !4
  %71 = call i32 @avio_rl32(ptr noundef %70)
  %72 = zext i32 %71 to i64
  store i64 %72, ptr %11, align 8, !tbaa !24
  %73 = load i64, ptr %11, align 8, !tbaa !24
  %74 = load i64, ptr %7, align 8, !tbaa !24
  %75 = icmp sgt i64 %73, %74
  br i1 %75, label %85, label %76

76:                                               ; preds = %65
  %77 = load i64, ptr %7, align 8, !tbaa !24
  %78 = load i64, ptr %11, align 8, !tbaa !24
  %79 = sub nsw i64 %77, %78
  %80 = load i64, ptr %8, align 8, !tbaa !24
  %81 = icmp slt i64 %79, %80
  br i1 %81, label %85, label %82

82:                                               ; preds = %76
  %83 = load i64, ptr %11, align 8, !tbaa !24
  %84 = icmp eq i64 %83, 4294967295
  br i1 %84, label %85, label %87

85:                                               ; preds = %82, %76, %65
  %86 = load ptr, ptr %4, align 8, !tbaa !20
  call void (ptr, i32, ptr, ...) @av_log(ptr noundef %86, i32 noundef 24, ptr noundef @.str.4)
  store i32 -1094995529, ptr %3, align 4
  store i32 1, ptr %14, align 4
  br label %139

87:                                               ; preds = %82
  br label %88

88:                                               ; preds = %87, %62
  %89 = load i64, ptr %11, align 8, !tbaa !24
  %90 = and i64 %89, 1
  %91 = load i64, ptr %11, align 8, !tbaa !24
  %92 = add nsw i64 %91, %90
  store i64 %92, ptr %11, align 8, !tbaa !24
  %93 = load i32, ptr %10, align 4, !tbaa !11
  %94 = icmp ne i32 %93, 0
  br i1 %94, label %111, label %95

95:                                               ; preds = %88
  %96 = load i64, ptr %11, align 8, !tbaa !24
  %97 = icmp ne i64 %96, 0
  br i1 %97, label %98, label %102

98:                                               ; preds = %95
  %99 = load ptr, ptr %9, align 8, !tbaa !4
  %100 = load i64, ptr %11, align 8, !tbaa !24
  %101 = call i64 @avio_skip(ptr noundef %99, i64 noundef %100)
  br label %110

102:                                              ; preds = %95
  %103 = load ptr, ptr %9, align 8, !tbaa !4
  %104 = getelementptr inbounds nuw %struct.AVIOContext, ptr %103, i32 0, i32 10
  %105 = load i32, ptr %104, align 8, !tbaa !65
  %106 = icmp ne i32 %105, 0
  br i1 %106, label %107, label %109

107:                                              ; preds = %102
  %108 = load ptr, ptr %4, align 8, !tbaa !20
  call void (ptr, i32, ptr, ...) @av_log(ptr noundef %108, i32 noundef 24, ptr noundef @.str.5)
  store i32 -541478725, ptr %3, align 4
  store i32 1, ptr %14, align 4
  br label %139

109:                                              ; preds = %102
  br label %110

110:                                              ; preds = %109, %98
  store i32 2, ptr %14, align 4
  br label %139, !llvm.loop !67

111:                                              ; preds = %88
  %112 = load i64, ptr %11, align 8, !tbaa !24
  %113 = add nsw i64 %112, 1
  %114 = call noalias ptr @av_mallocz(i64 noundef %113)
  store ptr %114, ptr %13, align 8, !tbaa !9
  %115 = load ptr, ptr %13, align 8, !tbaa !9
  %116 = icmp ne ptr %115, null
  br i1 %116, label %119, label %117

117:                                              ; preds = %111
  %118 = load ptr, ptr %4, align 8, !tbaa !20
  call void (ptr, i32, ptr, ...) @av_log(ptr noundef %118, i32 noundef 16, ptr noundef @.str.6)
  store i32 -12, ptr %3, align 4
  store i32 1, ptr %14, align 4
  br label %139

119:                                              ; preds = %111
  %120 = load i32, ptr %10, align 4, !tbaa !11
  %121 = getelementptr inbounds [5 x i8], ptr %12, i64 0, i64 0
  store i32 %120, ptr %121, align 1, !tbaa !37
  %122 = getelementptr inbounds [5 x i8], ptr %12, i64 0, i64 4
  store i8 0, ptr %122, align 1, !tbaa !37
  %123 = load ptr, ptr %9, align 8, !tbaa !4
  %124 = load ptr, ptr %13, align 8, !tbaa !9
  %125 = load i64, ptr %11, align 8, !tbaa !24
  %126 = trunc i64 %125 to i32
  %127 = call i32 @avio_read(ptr noundef %123, ptr noundef %124, i32 noundef %126)
  %128 = sext i32 %127 to i64
  %129 = load i64, ptr %11, align 8, !tbaa !24
  %130 = icmp ne i64 %128, %129
  br i1 %130, label %131, label %133

131:                                              ; preds = %119
  %132 = load ptr, ptr %4, align 8, !tbaa !20
  call void (ptr, i32, ptr, ...) @av_log(ptr noundef %132, i32 noundef 24, ptr noundef @.str.7)
  br label %133

133:                                              ; preds = %131, %119
  %134 = load ptr, ptr %4, align 8, !tbaa !20
  %135 = getelementptr inbounds nuw %struct.AVFormatContext, ptr %134, i32 0, i32 29
  %136 = getelementptr inbounds [5 x i8], ptr %12, i64 0, i64 0
  %137 = load ptr, ptr %13, align 8, !tbaa !9
  %138 = call i32 @av_dict_set(ptr noundef %135, ptr noundef %136, ptr noundef %137, i32 noundef 8)
  store i32 0, ptr %14, align 4
  br label %139

139:                                              ; preds = %133, %117, %110, %107, %85, %51, %49
  call void @llvm.lifetime.end.p0(i64 8, ptr %13) #6
  call void @llvm.lifetime.end.p0(i64 5, ptr %12) #6
  call void @llvm.lifetime.end.p0(i64 8, ptr %11) #6
  call void @llvm.lifetime.end.p0(i64 4, ptr %10) #6
  %140 = load i32, ptr %14, align 4
  switch i32 %140, label %143 [
    i32 0, label %141
    i32 2, label %23
  ]

141:                                              ; preds = %139
  br label %23, !llvm.loop !67

142:                                              ; preds = %32
  store i32 0, ptr %3, align 4
  store i32 1, ptr %14, align 4
  br label %143

143:                                              ; preds = %142, %139
  call void @llvm.lifetime.end.p0(i64 8, ptr %9) #6
  call void @llvm.lifetime.end.p0(i64 8, ptr %8) #6
  call void @llvm.lifetime.end.p0(i64 8, ptr %7) #6
  call void @llvm.lifetime.end.p0(i64 8, ptr %6) #6
  %144 = load i32, ptr %3, align 4
  ret i32 %144
}