; Function Attrs: nounwind uwtable
define range(i32 -1094995529, 1) i32 @ff_read_riff_info(ptr noundef %0, i64 noundef %1) local_unnamed_addr #0 {
  %3 = alloca [5 x i8], align 4
  %4 = getelementptr inbounds nuw i8, ptr %0, i64 32
  %5 = load ptr, ptr %4, align 8, !tbaa !40
  %6 = tail call i64 @avio_seek(ptr noundef %5, i64 noundef 0, i32 noundef 1) #7
  %7 = add nsw i64 %6, %1
  %8 = tail call i64 @avio_seek(ptr noundef %5, i64 noundef 0, i32 noundef 1) #7
  %9 = icmp sgt i64 %8, -1
  %10 = add nsw i64 %7, -8
  %11 = icmp sle i64 %8, %10
  %12 = select i1 %9, i1 %11, i1 false
  br i1 %12, label %.lr.ph, label %.loopexit

.lr.ph:                                           ; preds = %2
  %13 = getelementptr inbounds nuw i8, ptr %3, i64 4
  %14 = getelementptr inbounds nuw i8, ptr %0, i64 192
  %15 = getelementptr inbounds nuw i8, ptr %5, i64 80
  br label %16

16:                                               ; preds = %.lr.ph, %63
  %17 = phi i64 [ %8, %.lr.ph ], [ %64, %63 ]
  call void @llvm.lifetime.start.p0(i64 5, ptr nonnull %3) #7
  call void @llvm.memset.p0.i64(ptr noundef nonnull align 4 dereferenceable(5) %3, i8 0, i64 5, i1 false)
  %18 = call i32 @avio_rl32(ptr noundef %5) #7
  %19 = call i32 @avio_rl32(ptr noundef %5) #7
  %20 = zext i32 %19 to i64
  %21 = call i32 @avio_feof(ptr noundef %5) #7
  %.not = icmp eq i32 %21, 0
  br i1 %.not, label %26, label %22

22:                                               ; preds = %16
  %23 = icmp ne i32 %18, 0
  %24 = icmp ne i32 %19, 0
  %or.cond = select i1 %23, i1 true, i1 %24
  br i1 %or.cond, label %25, label %.thread

25:                                               ; preds = %22
  call void (ptr, i32, ptr, ...) @av_log(ptr noundef %0, i32 noundef 24, ptr noundef nonnull @.str.3) #7
  br label %.thread

26:                                               ; preds = %16
  %27 = icmp slt i64 %7, %20
  br i1 %27, label %32, label %28

28:                                               ; preds = %26
  %29 = sub nsw i64 %7, %20
  %30 = icmp slt i64 %29, %17
  %31 = icmp eq i32 %19, -1
  %or.cond3 = select i1 %30, i1 true, i1 %31
  br i1 %or.cond3, label %32, label %43

32:                                               ; preds = %28, %26
  %33 = call i64 @avio_seek(ptr noundef %5, i64 noundef -9, i32 noundef 1) #7
  %34 = call i32 @avio_rl32(ptr noundef %5) #7
  %35 = call i32 @avio_rl32(ptr noundef %5) #7
  %36 = zext i32 %35 to i64
  %37 = icmp slt i64 %7, %36
  br i1 %37, label %42, label %38

38:                                               ; preds = %32
  %39 = sub nsw i64 %7, %36
  %40 = icmp slt i64 %39, %17
  %41 = icmp eq i32 %35, -1
  %or.cond5 = or i1 %41, %40
  br i1 %or.cond5, label %42, label %43

42:                                               ; preds = %38, %32
  call void (ptr, i32, ptr, ...) @av_log(ptr noundef %0, i32 noundef 24, ptr noundef nonnull @.str.4) #7
  br label %.thread

43:                                               ; preds = %38, %28
  %.056 = phi i32 [ %34, %38 ], [ %18, %28 ]
  %.055 = phi i64 [ %36, %38 ], [ %20, %28 ]
  %44 = and i64 %.055, 1
  %45 = add nuw nsw i64 %44, %.055
  %.not64 = icmp eq i32 %.056, 0
  br i1 %.not64, label %46, label %52

46:                                               ; preds = %43
  %.not65 = icmp eq i64 %45, 0
  br i1 %.not65, label %49, label %47

47:                                               ; preds = %46
  %48 = call i64 @avio_skip(ptr noundef %5, i64 noundef %45) #7
  br label %63, !llvm.loop !52

49:                                               ; preds = %46
  %50 = load i32, ptr %15, align 8, !tbaa !53
  %.not66 = icmp eq i32 %50, 0
  br i1 %.not66, label %63, label %51, !llvm.loop !52

51:                                               ; preds = %49
  call void (ptr, i32, ptr, ...) @av_log(ptr noundef %0, i32 noundef 24, ptr noundef nonnull @.str.5) #7
  br label %.thread

52:                                               ; preds = %43
  %53 = add nuw nsw i64 %45, 1
  %54 = call noalias ptr @av_mallocz(i64 noundef %53) #7
  %.not67 = icmp eq ptr %54, null
  br i1 %.not67, label %55, label %56

55:                                               ; preds = %52
  call void (ptr, i32, ptr, ...) @av_log(ptr noundef %0, i32 noundef 16, ptr noundef nonnull @.str.6) #7
  br label %.thread

56:                                               ; preds = %52
  store i32 %.056, ptr %3, align 4, !tbaa !24
  store i8 0, ptr %13, align 4, !tbaa !24
  %57 = trunc nuw i64 %45 to i32
  %58 = call i32 @avio_read(ptr noundef %5, ptr noundef nonnull %54, i32 noundef %57) #7
  %59 = sext i32 %58 to i64
  %.not68 = icmp eq i64 %45, %59
  br i1 %.not68, label %61, label %60

60:                                               ; preds = %56
  call void (ptr, i32, ptr, ...) @av_log(ptr noundef %0, i32 noundef 24, ptr noundef nonnull @.str.7) #7
  br label %61

61:                                               ; preds = %60, %56
  %62 = call i32 @av_dict_set(ptr noundef nonnull %14, ptr noundef nonnull %3, ptr noundef nonnull %54, i32 noundef 8) #7
  br label %63

.thread:                                          ; preds = %25, %42, %55, %51, %22
  %.1.ph = phi i32 [ -541478725, %22 ], [ -541478725, %51 ], [ -12, %55 ], [ -1094995529, %42 ], [ -1094995529, %25 ]
  call void @llvm.lifetime.end.p0(i64 5, ptr nonnull %3) #7
  br label %.loopexit

63:                                               ; preds = %47, %49, %61
  call void @llvm.lifetime.end.p0(i64 5, ptr nonnull %3) #7
  %64 = call i64 @avio_seek(ptr noundef %5, i64 noundef 0, i32 noundef 1) #7
  %65 = icmp sgt i64 %64, -1
  %66 = icmp sle i64 %64, %10
  %67 = select i1 %65, i1 %66, i1 false
  br i1 %67, label %16, label %.loopexit

.loopexit:                                        ; preds = %63, %2, %.thread
  %.2 = phi i32 [ %.1.ph, %.thread ], [ 0, %2 ], [ 0, %63 ]
  ret i32 %.2
}